(dp0
S'name_transfer'
p1
I00
sS'third_party'
p2
I00
sS'enquiry_book'
p3
I00
sS'claim_cheque_details'
p4
I00
sS'phonecall_details'
p5
I00
sS'ge_income'
p6
I00
sS'covernote_book_details'
p7
I00
sS'ge_expense'
p8
I00
sS'direct_own_agent_business'
p9
I00
sS'files_follow_up'
p10
I00
sS'customer_care'
p11
I00
sS'other_agent_business'
p12
I00
sS'phone_number'
p13
L8893845901L
sS'cashbook'
p14
I00
sS'direct_business'
p15
I00
s.